target datalayout = "e-m:e-p270:32:32-p271:32:32-p272:64:64-i64:64-i128:128-f80:128-n8:16:32:64-S128"
target triple = "x86_64-pc-linux-gnu"

%struct.Node = type { i32 }
%struct.AppendRelInfo = type { i32, i32, i32, i32, i32, ptr, i32, ptr, i32 }

; Function Attrs: inlinehint nounwind willreturn memory(read) uwtable
define available_externally i32 @atoi(ptr noundef nonnull %0) #6 {
  %2 = alloca ptr, align 8
  store ptr %0, ptr %2, align 8
  %3 = load ptr, ptr %2, align 8
  %4 = call i64 @strtol(ptr noundef %3, ptr noundef null, i32 noundef 10) #9
  %5 = trunc i64 %4 to i32
  ret i32 %5
}

; Function Attrs: inlinehint nounwind uwtable
define internal ptr @newNode(i64 noundef %0, i32 noundef %1) #7 {
  %3 = alloca i64, align 8
  %4 = alloca i32, align 4
  %5 = alloca ptr, align 8
  store i64 %0, ptr %3, align 8
  store i32 %1, ptr %4, align 4
  call void @llvm.lifetime.start.p0(i64 8, ptr %5) #9
  %6 = load i64, ptr %3, align 8
  %7 = call ptr @palloc0(i64 noundef %6)
  store ptr %7, ptr %5, align 8
  %8 = load i32, ptr %4, align 4
  %9 = load ptr, ptr %5, align 8
  %10 = getelementptr inbounds nuw %struct.Node, ptr %9, i32 0, i32 0
  store i32 %8, ptr %10, align 4
  %11 = load ptr, ptr %5, align 8
  call void @llvm.lifetime.end.p0(i64 8, ptr %5) #9
  ret ptr %11
}

; Function Attrs: nounwind uwtable
define internal ptr @_readAppendRelInfo() #0 {
  %1 = alloca ptr, align 8
  %2 = alloca ptr, align 8
  %3 = alloca i32, align 4
  call void @llvm.lifetime.start.p0(i64 8, ptr %1) #9
  %4 = call ptr @newNode(i64 noundef 56, i32 noundef 321)
  store ptr %4, ptr %1, align 8
  call void @llvm.lifetime.start.p0(i64 8, ptr %2) #9
  call void @llvm.lifetime.start.p0(i64 4, ptr %3) #9
  %5 = call ptr @pg_strtok(ptr noundef %3)
  store ptr %5, ptr %2, align 8
  %6 = call ptr @pg_strtok(ptr noundef %3)
  store ptr %6, ptr %2, align 8
  %7 = load ptr, ptr %2, align 8
  %8 = call i64 @strtoul(ptr noundef %7, ptr noundef null, i32 noundef 10) #9
  %9 = trunc i64 %8 to i32
  %10 = load ptr, ptr %1, align 8
  %11 = getelementptr inbounds nuw %struct.AppendRelInfo, ptr %10, i32 0, i32 1
  store i32 %9, ptr %11, align 4
  %12 = call ptr @pg_strtok(ptr noundef %3)
  store ptr %12, ptr %2, align 8
  %13 = call ptr @pg_strtok(ptr noundef %3)
  store ptr %13, ptr %2, align 8
  %14 = load ptr, ptr %2, align 8
  %15 = call i64 @strtoul(ptr noundef %14, ptr noundef null, i32 noundef 10) #9
  %16 = trunc i64 %15 to i32
  %17 = load ptr, ptr %1, align 8
  %18 = getelementptr inbounds nuw %struct.AppendRelInfo, ptr %17, i32 0, i32 2
  store i32 %16, ptr %18, align 8
  %19 = call ptr @pg_strtok(ptr noundef %3)
  store ptr %19, ptr %2, align 8
  %20 = call ptr @pg_strtok(ptr noundef %3)
  store ptr %20, ptr %2, align 8
  %21 = load ptr, ptr %2, align 8
  %22 = call i64 @strtoul(ptr noundef %21, ptr noundef null, i32 noundef 10) #9
  %23 = trunc i64 %22 to i32
  %24 = load ptr, ptr %1, align 8
  %25 = getelementptr inbounds nuw %struct.AppendRelInfo, ptr %24, i32 0, i32 3
  store i32 %23, ptr %25, align 4
  %26 = call ptr @pg_strtok(ptr noundef %3)
  store ptr %26, ptr %2, align 8
  %27 = call ptr @pg_strtok(ptr noundef %3)
  store ptr %27, ptr %2, align 8
  %28 = load ptr, ptr %2, align 8
  %29 = call i64 @strtoul(ptr noundef %28, ptr noundef null, i32 noundef 10) #9
  %30 = trunc i64 %29 to i32
  %31 = load ptr, ptr %1, align 8
  %32 = getelementptr inbounds nuw %struct.AppendRelInfo, ptr %31, i32 0, i32 4
  store i32 %30, ptr %32, align 8
  %33 = call ptr @pg_strtok(ptr noundef %3)
  store ptr %33, ptr %2, align 8
  %34 = call ptr @nodeRead(ptr noundef null, i32 noundef 0)
  %35 = load ptr, ptr %1, align 8
  %36 = getelementptr inbounds nuw %struct.AppendRelInfo, ptr %35, i32 0, i32 5
  store ptr %34, ptr %36, align 8
  %37 = call ptr @pg_strtok(ptr noundef %3)
  store ptr %37, ptr %2, align 8
  %38 = call ptr @pg_strtok(ptr noundef %3)
  store ptr %38, ptr %2, align 8
  %39 = load ptr, ptr %2, align 8
  %40 = call i32 @atoi(ptr noundef %39) #11
  %41 = load ptr, ptr %1, align 8
  %42 = getelementptr inbounds nuw %struct.AppendRelInfo, ptr %41, i32 0, i32 6
  store i32 %40, ptr %42, align 8
  %43 = call ptr @pg_strtok(ptr noundef %3)
  store ptr %43, ptr %2, align 8
  %44 = load ptr, ptr %1, align 8
  %45 = getelementptr inbounds nuw %struct.AppendRelInfo, ptr %44, i32 0, i32 6
  %46 = load i32, ptr %45, align 8
  %47 = call ptr @readAttrNumberCols(i32 noundef %46)
  %48 = load ptr, ptr %1, align 8
  %49 = getelementptr inbounds nuw %struct.AppendRelInfo, ptr %48, i32 0, i32 7
  store ptr %47, ptr %49, align 8
  %50 = call ptr @pg_strtok(ptr noundef %3)
  store ptr %50, ptr %2, align 8
  %51 = call ptr @pg_strtok(ptr noundef %3)
  store ptr %51, ptr %2, align 8
  %52 = load ptr, ptr %2, align 8
  %53 = call i64 @strtoul(ptr noundef %52, ptr noundef null, i32 noundef 10) #9
  %54 = trunc i64 %53 to i32
  %55 = load ptr, ptr %1, align 8
  %56 = getelementptr inbounds nuw %struct.AppendRelInfo, ptr %55, i32 0, i32 8
  store i32 %54, ptr %56, align 8
  %57 = load ptr, ptr %1, align 8
  call void @llvm.lifetime.end.p0(i64 4, ptr %3) #9
  call void @llvm.lifetime.end.p0(i64 8, ptr %2) #9
  call void @llvm.lifetime.end.p0(i64 8, ptr %1) #9
  ret ptr %57
}