; Function Attrs: nounwind uwtable
define internal fastcc noundef ptr @_readAppendRelInfo() unnamed_addr #0 {
  %1 = alloca i32, align 4
  %2 = tail call noundef ptr @palloc0(i64 noundef 56) #10
  store i32 321, ptr %2, align 4
  call void @llvm.lifetime.start.p0(i64 4, ptr nonnull %1) #10
  %3 = call ptr @pg_strtok(ptr noundef nonnull %1) #10
  %4 = call ptr @pg_strtok(ptr noundef nonnull %1) #10
  %5 = call i64 @strtoul(ptr noundef captures(none) %4, ptr noundef null, i32 noundef 10) #10
  %6 = trunc i64 %5 to i32
  %7 = getelementptr inbounds nuw i8, ptr %2, i64 4
  store i32 %6, ptr %7, align 4
  %8 = call ptr @pg_strtok(ptr noundef nonnull %1) #10
  %9 = call ptr @pg_strtok(ptr noundef nonnull %1) #10
  %10 = call i64 @strtoul(ptr noundef captures(none) %9, ptr noundef null, i32 noundef 10) #10
  %11 = trunc i64 %10 to i32
  %12 = getelementptr inbounds nuw i8, ptr %2, i64 8
  store i32 %11, ptr %12, align 8
  %13 = call ptr @pg_strtok(ptr noundef nonnull %1) #10
  %14 = call ptr @pg_strtok(ptr noundef nonnull %1) #10
  %15 = call i64 @strtoul(ptr noundef captures(none) %14, ptr noundef null, i32 noundef 10) #10
  %16 = trunc i64 %15 to i32
  %17 = getelementptr inbounds nuw i8, ptr %2, i64 12
  store i32 %16, ptr %17, align 4
  %18 = call ptr @pg_strtok(ptr noundef nonnull %1) #10
  %19 = call ptr @pg_strtok(ptr noundef nonnull %1) #10
  %20 = call i64 @strtoul(ptr noundef captures(none) %19, ptr noundef null, i32 noundef 10) #10
  %21 = trunc i64 %20 to i32
  %22 = getelementptr inbounds nuw i8, ptr %2, i64 16
  store i32 %21, ptr %22, align 8
  %23 = call ptr @pg_strtok(ptr noundef nonnull %1) #10
  %24 = call ptr @nodeRead(ptr noundef null, i32 noundef 0) #10
  %25 = getelementptr inbounds nuw i8, ptr %2, i64 24
  store ptr %24, ptr %25, align 8
  %26 = call ptr @pg_strtok(ptr noundef nonnull %1) #10
  %27 = call ptr @pg_strtok(ptr noundef nonnull %1) #10
  %28 = call i64 @strtol(ptr noundef nonnull captures(none) %27, ptr noundef null, i32 noundef 10) #10
  %29 = trunc i64 %28 to i32
  %30 = getelementptr inbounds nuw i8, ptr %2, i64 32
  store i32 %29, ptr %30, align 8
  %31 = call ptr @pg_strtok(ptr noundef nonnull %1) #10
  %32 = load i32, ptr %30, align 8
  %33 = call ptr @readAttrNumberCols(i32 noundef %32)
  %34 = getelementptr inbounds nuw i8, ptr %2, i64 40
  store ptr %33, ptr %34, align 8
  %35 = call ptr @pg_strtok(ptr noundef nonnull %1) #10
  %36 = call ptr @pg_strtok(ptr noundef nonnull %1) #10
  %37 = call i64 @strtoul(ptr noundef captures(none) %36, ptr noundef null, i32 noundef 10) #10
  %38 = trunc i64 %37 to i32
  %39 = getelementptr inbounds nuw i8, ptr %2, i64 48
  store i32 %38, ptr %39, align 8
  call void @llvm.lifetime.end.p0(i64 4, ptr nonnull %1) #10
  ret ptr %2
}